target datalayout = "e-m:e-p270:32:32-p271:32:32-p272:64:64-i64:64-i128:128-f80:128-n8:16:32:64-S128"
target triple = "x86_64-pc-linux-gnu"

; Function Attrs: inlinehint nounwind uwtable
define internal void @rgb24tobgr15_c(ptr noundef %0, ptr noundef %1, i32 noundef %2) #4 {
  %4 = alloca ptr, align 8
  %5 = alloca ptr, align 8
  %6 = alloca i32, align 4
  %7 = alloca ptr, align 8
  %8 = alloca ptr, align 8
  %9 = alloca ptr, align 8
  %10 = alloca i32, align 4
  %11 = alloca i32, align 4
  %12 = alloca i32, align 4
  store ptr %0, ptr %4, align 8, !tbaa !4
  store ptr %1, ptr %5, align 8, !tbaa !4
  store i32 %2, ptr %6, align 4, !tbaa !9
  call void @llvm.lifetime.start.p0(i64 8, ptr %7) #5
  %13 = load ptr, ptr %5, align 8, !tbaa !4
  store ptr %13, ptr %7, align 8, !tbaa !20
  call void @llvm.lifetime.start.p0(i64 8, ptr %8) #5
  %14 = load ptr, ptr %4, align 8, !tbaa !4
  store ptr %14, ptr %8, align 8, !tbaa !4
  call void @llvm.lifetime.start.p0(i64 8, ptr %9) #5
  %15 = load ptr, ptr %8, align 8, !tbaa !4
  %16 = load i32, ptr %6, align 4, !tbaa !9
  %17 = sext i32 %16 to i64
  %18 = getelementptr inbounds i8, ptr %15, i64 %17
  store ptr %18, ptr %9, align 8, !tbaa !4
  br label %19

19:                                               ; preds = %23, %3
  %20 = load ptr, ptr %8, align 8, !tbaa !4
  %21 = load ptr, ptr %9, align 8, !tbaa !4
  %22 = icmp ult ptr %20, %21
  br i1 %22, label %23, label %49

23:                                               ; preds = %19
  call void @llvm.lifetime.start.p0(i64 4, ptr %10) #5
  %24 = load ptr, ptr %8, align 8, !tbaa !4
  %25 = getelementptr inbounds nuw i8, ptr %24, i32 1
  store ptr %25, ptr %8, align 8, !tbaa !4
  %26 = load i8, ptr %24, align 1, !tbaa !13
  %27 = zext i8 %26 to i32
  store i32 %27, ptr %10, align 4, !tbaa !9
  call void @llvm.lifetime.start.p0(i64 4, ptr %11) #5
  %28 = load ptr, ptr %8, align 8, !tbaa !4
  %29 = getelementptr inbounds nuw i8, ptr %28, i32 1
  store ptr %29, ptr %8, align 8, !tbaa !4
  %30 = load i8, ptr %28, align 1, !tbaa !13
  %31 = zext i8 %30 to i32
  store i32 %31, ptr %11, align 4, !tbaa !9
  call void @llvm.lifetime.start.p0(i64 4, ptr %12) #5
  %32 = load ptr, ptr %8, align 8, !tbaa !4
  %33 = getelementptr inbounds nuw i8, ptr %32, i32 1
  store ptr %33, ptr %8, align 8, !tbaa !4
  %34 = load i8, ptr %32, align 1, !tbaa !13
  %35 = zext i8 %34 to i32
  store i32 %35, ptr %12, align 4, !tbaa !9
  %36 = load i32, ptr %10, align 4, !tbaa !9
  %37 = ashr i32 %36, 3
  %38 = load i32, ptr %11, align 4, !tbaa !9
  %39 = and i32 %38, 248
  %40 = shl i32 %39, 2
  %41 = or i32 %37, %40
  %42 = load i32, ptr %12, align 4, !tbaa !9
  %43 = and i32 %42, 248
  %44 = shl i32 %43, 7
  %45 = or i32 %41, %44
  %46 = trunc i32 %45 to i16
  %47 = load ptr, ptr %7, align 8, !tbaa !20
  %48 = getelementptr inbounds nuw i16, ptr %47, i32 1
  store ptr %48, ptr %7, align 8, !tbaa !20
  store i16 %46, ptr %47, align 2, !tbaa !22
  call void @llvm.lifetime.end.p0(i64 4, ptr %12) #5
  call void @llvm.lifetime.end.p0(i64 4, ptr %11) #5
  call void @llvm.lifetime.end.p0(i64 4, ptr %10) #5
  br label %19, !llvm.loop !59

49:                                               ; preds = %19
  call void @llvm.lifetime.end.p0(i64 8, ptr %9) #5
  call void @llvm.lifetime.end.p0(i64 8, ptr %8) #5
  call void @llvm.lifetime.end.p0(i64 8, ptr %7) #5
  ret void
}